target datalayout = "e-m:e-p270:32:32-p271:32:32-p272:64:64-i64:64-i128:128-f80:128-n8:16:32:64-S128"
target triple = "x86_64-pc-linux-gnu"

; Function Attrs: mustprogress uwtable
define noundef zeroext i1 @_ZN4base14SetNonBlockingEi(i32 noundef %0) #0 {
  %2 = alloca i1, align 1
  %3 = alloca i32, align 4
  %4 = alloca i32, align 4
  %5 = alloca i32, align 4
  %6 = alloca i32, align 4
  %7 = alloca i32, align 4
  store i32 %0, ptr %3, align 4, !tbaa !20
  call void @llvm.lifetime.start.p0(i64 4, ptr %4) #10
  %8 = load i32, ptr %3, align 4, !tbaa !20
  %9 = call i32 (i32, i32, ...) @fcntl(i32 noundef %8, i32 noundef 3)
  store i32 %9, ptr %4, align 4, !tbaa !20
  %10 = load i32, ptr %4, align 4, !tbaa !20
  %11 = icmp eq i32 %10, -1
  br i1 %11, label %12, label %13

12:                                               ; preds = %1
  store i1 false, ptr %2, align 1
  store i32 1, ptr %5, align 4
  br label %39

13:                                               ; preds = %1
  %14 = load i32, ptr %4, align 4, !tbaa !20
  %15 = and i32 %14, 2048
  %16 = icmp ne i32 %15, 0
  br i1 %16, label %17, label %18

17:                                               ; preds = %13
  store i1 true, ptr %2, align 1
  store i32 1, ptr %5, align 4
  br label %39

18:                                               ; preds = %13
  call void @llvm.lifetime.start.p0(i64 4, ptr %6) #10
  br label %19

19:                                               ; preds = %31, %18
  %20 = load i32, ptr %3, align 4, !tbaa !20
  %21 = load i32, ptr %4, align 4, !tbaa !20
  %22 = or i32 %21, 2048
  %23 = call i32 (i32, i32, ...) @fcntl(i32 noundef %20, i32 noundef 4, i32 noundef %22)
  store i32 %23, ptr %6, align 4, !tbaa !20
  br label %24

24:                                               ; preds = %19
  %25 = load i32, ptr %6, align 4, !tbaa !20
  %26 = icmp eq i32 %25, -1
  br i1 %26, label %27, label %31

27:                                               ; preds = %24
  %28 = call ptr @__errno_location() #17
  %29 = load i32, ptr %28, align 4, !tbaa !20
  %30 = icmp eq i32 %29, 4
  br label %31

31:                                               ; preds = %27, %24
  %32 = phi i1 [ false, %24 ], [ %30, %27 ]
  br i1 %32, label %19, label %33, !llvm.loop !50

33:                                               ; preds = %31
  %34 = load i32, ptr %6, align 4, !tbaa !20
  store i32 %34, ptr %7, align 4, !tbaa !20
  call void @llvm.lifetime.end.p0(i64 4, ptr %6) #10
  %35 = load i32, ptr %7, align 4, !tbaa !20
  %36 = icmp eq i32 %35, -1
  br i1 %36, label %37, label %38

37:                                               ; preds = %33
  store i1 false, ptr %2, align 1
  store i32 1, ptr %5, align 4
  br label %39

38:                                               ; preds = %33
  store i1 true, ptr %2, align 1
  store i32 1, ptr %5, align 4
  br label %39

39:                                               ; preds = %38, %37, %17, %12
  call void @llvm.lifetime.end.p0(i64 4, ptr %4) #10
  %40 = load i1, ptr %2, align 1
  ret i1 %40
}