; Function Attrs: mustprogress uwtable
define noundef zeroext i1 @_ZN4base14SetNonBlockingEi(i32 noundef %0) local_unnamed_addr #0 {
  %2 = tail call i32 (i32, i32, ...) @fcntl(i32 noundef %0, i32 noundef 3)
  %3 = icmp eq i32 %2, -1
  br i1 %3, label %.critedge, label %4

4:                                                ; preds = %1
  %5 = and i32 %2, 2048
  %.not = icmp eq i32 %5, 0
  br i1 %.not, label %.preheader, label %.critedge

.preheader:                                       ; preds = %4
  %6 = or disjoint i32 %2, 2048
  br label %7

7:                                                ; preds = %.preheader, %9
  %8 = tail call i32 (i32, i32, ...) @fcntl(i32 noundef %0, i32 noundef 4, i32 noundef %6)
  %.not9.not.not = icmp ne i32 %8, -1
  br i1 %.not9.not.not, label %.critedge, label %9

9:                                                ; preds = %7
  %10 = tail call ptr @__errno_location() #25
  %11 = load i32, ptr %10, align 4, !tbaa !11
  %12 = icmp eq i32 %11, 4
  br i1 %12, label %7, label %.critedge, !llvm.loop !54

.critedge:                                        ; preds = %9, %7, %4, %1
  %.0 = phi i1 [ false, %1 ], [ true, %4 ], [ %.not9.not.not, %7 ], [ %.not9.not.not, %9 ]
  ret i1 %.0
}